target datalayout = "e-m:e-p270:32:32-p271:32:32-p272:64:64-i64:64-i128:128-f80:128-n8:16:32:64-S128"
target triple = "x86_64-pc-linux-gnu"

%struct.Wlc_Obj_t_ = type { i16, i32, i32, i32, %union.anon }
%union.anon = type { [1 x ptr] }
%struct.Vec_Int_t_ = type { i32, i32, ptr }
%struct.Wlc_Ntk_t_ = type { ptr, ptr, %struct.Vec_Int_t_, %struct.Vec_Int_t_, %struct.Vec_Int_t_, %struct.Vec_Int_t_, %struct.Vec_Int_t_, %struct.Vec_Int_t_, ptr, ptr, ptr, [60 x i32], [60 x i32], i32, i32, i32, i32, i32, ptr, i32, i32, ptr, ptr, ptr, ptr, ptr, %struct.Vec_Int_t_, %struct.Vec_Int_t_, i32, %struct.Vec_Int_t_, %struct.Vec_Int_t_, %struct.Vec_Int_t_, %struct.Vec_Int_t_, %struct.Vec_Int_t_, %struct.Vec_Int_t_ }

@.str.5 = private unnamed_addr constant [28 x i8] c"Node IDs and their fanins:\0A\00", align 1
@.str.6 = private unnamed_addr constant [7 x i8] c"%5d = \00", align 1
@.str.7 = private unnamed_addr constant [5 x i8] c"%5d \00", align 1
@.str.8 = private unnamed_addr constant [7 x i8] c"      \00", align 1
@.str.9 = private unnamed_addr constant [16 x i8] c"    Name Id %d \00", align 1
@.str.10 = private unnamed_addr constant [7 x i8] c"  pi  \00", align 1
@.str.11 = private unnamed_addr constant [7 x i8] c"  po  \00", align 1
@.str.12 = private unnamed_addr constant [2 x i8] c"\0A\00", align 1

; Function Attrs: inlinehint nounwind uwtable
define internal i32 @Vec_IntEntry(ptr noundef %0, i32 noundef %1) #4 {
  %3 = alloca ptr, align 8
  %4 = alloca i32, align 4
  store ptr %0, ptr %3, align 8, !tbaa !16
  store i32 %1, ptr %4, align 4, !tbaa !3
  %5 = load ptr, ptr %3, align 8, !tbaa !16
  %6 = getelementptr inbounds nuw %struct.Vec_Int_t_, ptr %5, i32 0, i32 2
  %7 = load ptr, ptr %6, align 8, !tbaa !39
  %8 = load i32, ptr %4, align 4, !tbaa !3
  %9 = sext i32 %8 to i64
  %10 = getelementptr inbounds i32, ptr %7, i64 %9
  %11 = load i32, ptr %10, align 4, !tbaa !3
  ret i32 %11
}

; Function Attrs: inlinehint nounwind uwtable
define internal i32 @Wlc_ObjHasArray(ptr noundef %0) #4 {
  %2 = alloca ptr, align 8
  store ptr %0, ptr %2, align 8, !tbaa !18
  %3 = load ptr, ptr %2, align 8, !tbaa !18
  %4 = getelementptr inbounds nuw %struct.Wlc_Obj_t_, ptr %3, i32 0, i32 1
  %5 = load i32, ptr %4, align 4, !tbaa !47
  %6 = icmp ugt i32 %5, 2
  br i1 %6, label %19, label %7

7:                                                ; preds = %1
  %8 = load ptr, ptr %2, align 8, !tbaa !18
  %9 = load i16, ptr %8, align 8
  %10 = and i16 %9, 63
  %11 = zext i16 %10 to i32
  %12 = icmp eq i32 %11, 6
  br i1 %12, label %19, label %13

13:                                               ; preds = %7
  %14 = load ptr, ptr %2, align 8, !tbaa !18
  %15 = load i16, ptr %14, align 8
  %16 = and i16 %15, 63
  %17 = zext i16 %16 to i32
  %18 = icmp eq i32 %17, 22
  br label %19

19:                                               ; preds = %13, %7, %1
  %20 = phi i1 [ true, %7 ], [ true, %1 ], [ %18, %13 ]
  %21 = zext i1 %20 to i32
  ret i32 %21
}

; Function Attrs: inlinehint nounwind uwtable
define internal i32 @Wlc_ObjIsPo(ptr noundef %0) #4 {
  %2 = alloca ptr, align 8
  store ptr %0, ptr %2, align 8, !tbaa !18
  %3 = load ptr, ptr %2, align 8, !tbaa !18
  %4 = load i16, ptr %3, align 8
  %5 = lshr i16 %4, 9
  %6 = and i16 %5, 1
  %7 = zext i16 %6 to i32
  ret i32 %7
}

; Function Attrs: inlinehint nounwind uwtable
define internal i32 @Wlc_ObjIsPi(ptr noundef %0) #4 {
  %2 = alloca ptr, align 8
  store ptr %0, ptr %2, align 8, !tbaa !18
  %3 = load ptr, ptr %2, align 8, !tbaa !18
  %4 = load i16, ptr %3, align 8
  %5 = and i16 %4, 63
  %6 = zext i16 %5 to i32
  %7 = icmp eq i32 %6, 1
  %8 = zext i1 %7 to i32
  ret i32 %8
}

; Function Attrs: inlinehint nounwind uwtable
define internal i32 @Wlc_ObjNameId(ptr noundef %0, i32 noundef %1) #4 {
  %3 = alloca ptr, align 8
  %4 = alloca i32, align 4
  store ptr %0, ptr %3, align 8, !tbaa !13
  store i32 %1, ptr %4, align 4, !tbaa !3
  %5 = load ptr, ptr %3, align 8, !tbaa !13
  %6 = getelementptr inbounds nuw %struct.Wlc_Ntk_t_, ptr %5, i32 0, i32 26
  %7 = load i32, ptr %4, align 4, !tbaa !3
  %8 = call i32 @Vec_IntEntry(ptr noundef %6, i32 noundef %7)
  ret i32 %8
}

; Function Attrs: inlinehint nounwind uwtable
define internal i32 @Wlc_ObjFaninNum(ptr noundef %0) #4 {
  %2 = alloca ptr, align 8
  store ptr %0, ptr %2, align 8, !tbaa !18
  %3 = load ptr, ptr %2, align 8, !tbaa !18
  %4 = getelementptr inbounds nuw %struct.Wlc_Obj_t_, ptr %3, i32 0, i32 1
  %5 = load i32, ptr %4, align 4, !tbaa !47
  ret i32 %5
}

; Function Attrs: inlinehint nounwind uwtable
define internal ptr @Wlc_ObjFanins(ptr noundef %0) #4 {
  %2 = alloca ptr, align 8
  store ptr %0, ptr %2, align 8, !tbaa !18
  %3 = load ptr, ptr %2, align 8, !tbaa !18
  %4 = call i32 @Wlc_ObjHasArray(ptr noundef %3)
  %5 = icmp ne i32 %4, 0
  br i1 %5, label %6, label %11

6:                                                ; preds = %1
  %7 = load ptr, ptr %2, align 8, !tbaa !18
  %8 = getelementptr inbounds nuw %struct.Wlc_Obj_t_, ptr %7, i32 0, i32 4
  %9 = getelementptr inbounds [1 x ptr], ptr %8, i64 0, i64 0
  %10 = load ptr, ptr %9, align 8, !tbaa !10
  br label %15

11:                                               ; preds = %1
  %12 = load ptr, ptr %2, align 8, !tbaa !18
  %13 = getelementptr inbounds nuw %struct.Wlc_Obj_t_, ptr %12, i32 0, i32 4
  %14 = getelementptr inbounds [2 x i32], ptr %13, i64 0, i64 0
  br label %15

15:                                               ; preds = %11, %6
  %16 = phi ptr [ %10, %6 ], [ %14, %11 ]
  ret ptr %16
}

; Function Attrs: inlinehint nounwind uwtable
define internal ptr @Wlc_NtkObj(ptr noundef %0, i32 noundef %1) #4 {
  %3 = alloca ptr, align 8
  %4 = alloca i32, align 4
  store ptr %0, ptr %3, align 8, !tbaa !13
  store i32 %1, ptr %4, align 4, !tbaa !3
  %5 = load ptr, ptr %3, align 8, !tbaa !13
  %6 = getelementptr inbounds nuw %struct.Wlc_Ntk_t_, ptr %5, i32 0, i32 18
  %7 = load ptr, ptr %6, align 8, !tbaa !40
  %8 = load i32, ptr %4, align 4, !tbaa !3
  %9 = sext i32 %8 to i64
  %10 = getelementptr inbounds %struct.Wlc_Obj_t_, ptr %7, i64 %9
  ret ptr %10
}

; Function Attrs: inlinehint nounwind uwtable
define internal i32 @Wlc_NtkObjNumMax(ptr noundef %0) #4 {
  %2 = alloca ptr, align 8
  store ptr %0, ptr %2, align 8, !tbaa !13
  %3 = load ptr, ptr %2, align 8, !tbaa !13
  %4 = getelementptr inbounds nuw %struct.Wlc_Ntk_t_, ptr %3, i32 0, i32 19
  %5 = load i32, ptr %4, align 8, !tbaa !46
  ret i32 %5
}

; Function Attrs: nounwind uwtable
define void @Ndr_NtkPrintNodes(ptr noundef %0) #0 {
  %2 = alloca ptr, align 8
  %3 = alloca ptr, align 8
  %4 = alloca i32, align 4
  %5 = alloca i32, align 4
  %6 = alloca ptr, align 8
  store ptr %0, ptr %2, align 8, !tbaa !13
  call void @llvm.lifetime.start.p0(i64 8, ptr %3) #11
  call void @llvm.lifetime.start.p0(i64 4, ptr %4) #11
  call void @llvm.lifetime.start.p0(i64 4, ptr %5) #11
  %7 = call i32 (ptr, ...) @printf(ptr noundef @.str.5)
  store i32 1, ptr %4, align 4, !tbaa !3
  br label %8

8:                                                ; preds = %66, %1
  %9 = load i32, ptr %4, align 4, !tbaa !3
  %10 = load ptr, ptr %2, align 8, !tbaa !13
  %11 = call i32 @Wlc_NtkObjNumMax(ptr noundef %10)
  %12 = icmp slt i32 %9, %11
  br i1 %12, label %13, label %17

13:                                               ; preds = %8
  %14 = load ptr, ptr %2, align 8, !tbaa !13
  %15 = load i32, ptr %4, align 4, !tbaa !3
  %16 = call ptr @Wlc_NtkObj(ptr noundef %14, i32 noundef %15)
  store ptr %16, ptr %3, align 8, !tbaa !18
  br label %17

17:                                               ; preds = %13, %8
  %18 = phi i1 [ false, %8 ], [ true, %13 ]
  br i1 %18, label %19, label %69

19:                                               ; preds = %17
  call void @llvm.lifetime.start.p0(i64 8, ptr %6) #11
  %20 = load ptr, ptr %3, align 8, !tbaa !18
  %21 = call ptr @Wlc_ObjFanins(ptr noundef %20)
  store ptr %21, ptr %6, align 8, !tbaa !7
  %22 = load i32, ptr %4, align 4, !tbaa !3
  %23 = call i32 (ptr, ...) @printf(ptr noundef @.str.6, i32 noundef %22)
  store i32 0, ptr %5, align 4, !tbaa !3
  br label %24

24:                                               ; preds = %36, %19
  %25 = load i32, ptr %5, align 4, !tbaa !3
  %26 = load ptr, ptr %3, align 8, !tbaa !18
  %27 = call i32 @Wlc_ObjFaninNum(ptr noundef %26)
  %28 = icmp slt i32 %25, %27
  br i1 %28, label %29, label %39

29:                                               ; preds = %24
  %30 = load ptr, ptr %6, align 8, !tbaa !7
  %31 = load i32, ptr %5, align 4, !tbaa !3
  %32 = sext i32 %31 to i64
  %33 = getelementptr inbounds i32, ptr %30, i64 %32
  %34 = load i32, ptr %33, align 4, !tbaa !3
  %35 = call i32 (ptr, ...) @printf(ptr noundef @.str.7, i32 noundef %34)
  br label %36

36:                                               ; preds = %29
  %37 = load i32, ptr %5, align 4, !tbaa !3
  %38 = add nsw i32 %37, 1
  store i32 %38, ptr %5, align 4, !tbaa !3
  br label %24, !llvm.loop !61

39:                                               ; preds = %24
  br label %40

40:                                               ; preds = %45, %39
  %41 = load i32, ptr %5, align 4, !tbaa !3
  %42 = icmp slt i32 %41, 4
  br i1 %42, label %43, label %48

43:                                               ; preds = %40
  %44 = call i32 (ptr, ...) @printf(ptr noundef @.str.8)
  br label %45

45:                                               ; preds = %43
  %46 = load i32, ptr %5, align 4, !tbaa !3
  %47 = add nsw i32 %46, 1
  store i32 %47, ptr %5, align 4, !tbaa !3
  br label %40, !llvm.loop !62

48:                                               ; preds = %40
  %49 = load ptr, ptr %2, align 8, !tbaa !13
  %50 = load i32, ptr %4, align 4, !tbaa !3
  %51 = call i32 @Wlc_ObjNameId(ptr noundef %49, i32 noundef %50)
  %52 = call i32 (ptr, ...) @printf(ptr noundef @.str.9, i32 noundef %51)
  %53 = load ptr, ptr %3, align 8, !tbaa !18
  %54 = call i32 @Wlc_ObjIsPi(ptr noundef %53)
  %55 = icmp ne i32 %54, 0
  br i1 %55, label %56, label %58

56:                                               ; preds = %48
  %57 = call i32 (ptr, ...) @printf(ptr noundef @.str.10)
  br label %58

58:                                               ; preds = %56, %48
  %59 = load ptr, ptr %3, align 8, !tbaa !18
  %60 = call i32 @Wlc_ObjIsPo(ptr noundef %59)
  %61 = icmp ne i32 %60, 0
  br i1 %61, label %62, label %64

62:                                               ; preds = %58
  %63 = call i32 (ptr, ...) @printf(ptr noundef @.str.11)
  br label %64

64:                                               ; preds = %62, %58
  %65 = call i32 (ptr, ...) @printf(ptr noundef @.str.12)
  call void @llvm.lifetime.end.p0(i64 8, ptr %6) #11
  br label %66

66:                                               ; preds = %64
  %67 = load i32, ptr %4, align 4, !tbaa !3
  %68 = add nsw i32 %67, 1
  store i32 %68, ptr %4, align 4, !tbaa !3
  br label %8, !llvm.loop !63

69:                                               ; preds = %17
  call void @llvm.lifetime.end.p0(i64 4, ptr %5) #11
  call void @llvm.lifetime.end.p0(i64 4, ptr %4) #11
  call void @llvm.lifetime.end.p0(i64 8, ptr %3) #11
  ret void
}