; Function Attrs: nofree nounwind uwtable
define void @Ndr_NtkPrintNodes(ptr noundef readonly captures(none) %0) local_unnamed_addr #1 {
  %puts = tail call i32 @puts(ptr nonnull dereferenceable(1) @str.1)
  %2 = getelementptr i8, ptr %0, i64 648
  %.val1928 = load i32, ptr %2, align 8, !tbaa !22
  %3 = icmp sgt i32 %.val1928, 1
  br i1 %3, label %.lr.ph31, label %.critedge

.lr.ph31:                                         ; preds = %1
  %4 = getelementptr i8, ptr %0, i64 640
  %5 = getelementptr i8, ptr %0, i64 704
  br label %6

6:                                                ; preds = %.lr.ph31, %41
  %indvars.iv33 = phi i64 [ 1, %.lr.ph31 ], [ %indvars.iv.next34, %41 ]
  %.val = load ptr, ptr %4, align 8, !tbaa !30
  %7 = getelementptr inbounds nuw %struct.Wlc_Obj_t_, ptr %.val, i64 %indvars.iv33
  %8 = getelementptr inbounds nuw i8, ptr %7, i64 4
  %9 = load i32, ptr %8, align 4, !tbaa !35
  %10 = icmp ugt i32 %9, 2
  br i1 %10, label %Wlc_ObjHasArray.exit.thread.i, label %11

11:                                               ; preds = %6
  %12 = load i16, ptr %7, align 8
  %13 = and i16 %12, 63
  switch i16 %13, label %16 [
    i16 6, label %Wlc_ObjHasArray.exit.thread.i
    i16 22, label %Wlc_ObjHasArray.exit.thread.i
  ]

Wlc_ObjHasArray.exit.thread.i:                    ; preds = %11, %11, %6
  %14 = getelementptr inbounds nuw i8, ptr %7, i64 16
  %15 = load ptr, ptr %14, align 8, !tbaa !7
  br label %Wlc_ObjFanins.exit

16:                                               ; preds = %11
  %17 = getelementptr inbounds nuw i8, ptr %7, i64 16
  br label %Wlc_ObjFanins.exit

Wlc_ObjFanins.exit:                               ; preds = %Wlc_ObjHasArray.exit.thread.i, %16
  %18 = phi ptr [ %15, %Wlc_ObjHasArray.exit.thread.i ], [ %17, %16 ]
  %19 = trunc nuw nsw i64 %indvars.iv33 to i32
  %20 = tail call i32 (ptr, ...) @printf(ptr noundef nonnull dereferenceable(1) @.str.6, i32 noundef %19)
  %.val2124 = load i32, ptr %8, align 4, !tbaa !35
  %21 = icmp sgt i32 %.val2124, 0
  br i1 %21, label %.lr.ph, label %.lr.ph27.preheader

.preheader:                                       ; preds = %.lr.ph
  %22 = trunc nuw nsw i64 %indvars.iv.next to i32
  %23 = icmp samesign ult i64 %indvars.iv, 3
  br i1 %23, label %.lr.ph27.preheader, label %._crit_edge

.lr.ph27.preheader:                               ; preds = %Wlc_ObjFanins.exit, %.preheader
  %.126.ph = phi i32 [ 0, %Wlc_ObjFanins.exit ], [ %22, %.preheader ]
  br label %.lr.ph27

.lr.ph:                                           ; preds = %Wlc_ObjFanins.exit, %.lr.ph
  %indvars.iv = phi i64 [ %indvars.iv.next, %.lr.ph ], [ 0, %Wlc_ObjFanins.exit ]
  %24 = getelementptr inbounds nuw i32, ptr %18, i64 %indvars.iv
  %25 = load i32, ptr %24, align 4, !tbaa !3
  %26 = tail call i32 (ptr, ...) @printf(ptr noundef nonnull dereferenceable(1) @.str.7, i32 noundef %25)
  %indvars.iv.next = add nuw nsw i64 %indvars.iv, 1
  %.val21 = load i32, ptr %8, align 4, !tbaa !35
  %27 = sext i32 %.val21 to i64
  %28 = icmp slt i64 %indvars.iv.next, %27
  br i1 %28, label %.lr.ph, label %.preheader, !llvm.loop !61

.lr.ph27:                                         ; preds = %.lr.ph27.preheader, %.lr.ph27
  %.126 = phi i32 [ %30, %.lr.ph27 ], [ %.126.ph, %.lr.ph27.preheader ]
  %29 = tail call i32 (ptr, ...) @printf(ptr noundef nonnull dereferenceable(1) @.str.8)
  %30 = add nuw i32 %.126, 1
  %exitcond.not = icmp eq i32 %30, 4
  br i1 %exitcond.not, label %._crit_edge, label %.lr.ph27, !llvm.loop !62

._crit_edge:                                      ; preds = %.lr.ph27, %.preheader
  %.val23 = load ptr, ptr %5, align 8, !tbaa !21
  %31 = getelementptr inbounds nuw i32, ptr %.val23, i64 %indvars.iv33
  %32 = load i32, ptr %31, align 4, !tbaa !3
  %33 = tail call i32 (ptr, ...) @printf(ptr noundef nonnull dereferenceable(1) @.str.9, i32 noundef %32)
  %.val20 = load i16, ptr %7, align 8
  %34 = and i16 %.val20, 63
  %.not = icmp eq i16 %34, 1
  br i1 %.not, label %35, label %37

35:                                               ; preds = %._crit_edge
  %36 = tail call i32 (ptr, ...) @printf(ptr noundef nonnull dereferenceable(1) @.str.10)
  %.val22.pre = load i16, ptr %7, align 8
  br label %37

37:                                               ; preds = %35, %._crit_edge
  %.val22 = phi i16 [ %.val22.pre, %35 ], [ %.val20, %._crit_edge ]
  %38 = and i16 %.val22, 512
  %.not18 = icmp eq i16 %38, 0
  br i1 %.not18, label %41, label %39

39:                                               ; preds = %37
  %40 = tail call i32 (ptr, ...) @printf(ptr noundef nonnull dereferenceable(1) @.str.11)
  br label %41

41:                                               ; preds = %39, %37
  %putchar = tail call i32 @putchar(i32 10)
  %indvars.iv.next34 = add nuw nsw i64 %indvars.iv33, 1
  %.val19 = load i32, ptr %2, align 8, !tbaa !22
  %42 = sext i32 %.val19 to i64
  %43 = icmp slt i64 %indvars.iv.next34, %42
  br i1 %43, label %6, label %.critedge, !llvm.loop !63

.critedge:                                        ; preds = %41, %1
  ret void
}